MPASM 5.86                          MAIN.ASM   7-11-2022  14:45:53         PAGE  1


LOC  OBJECT CODE     LINE SOURCE TEXT
  VALUE

                      00001 ;Progetto di esame Bartolini
                      00002 ;-----------------------------------------------------------------------------------------------
                      00003         
                      00004 ;Si realizzi un firmware che implementi un cronometro con risoluzione di un secondo
                      00005 ;e visualizzi il tempo tramite porta seriale (EUSART) nel formato "mm:ss". Un
                      00006 ;pulsante permetta di arrestare e riattivare il cronometro, mentre un LED sia acceso
                      00007 ;quando il cronometro è attivo.
                      00008 
                      00009 ;-----------------------------------------------------------------------------------------------
                      00010     
                      00011         #include        "p16f887.inc"   
                      00001         LIST
                      00002 
                      00003 ;==========================================================================
                      00004 ; Build date : Oct 24 2019
                      00005 ;  MPASM PIC16F887 processor include
                      00006 ; 
                      00007 ;  (c) Copyright 1999-2019 Microchip Technology, All rights reserved
                      00008 ;==========================================================================
                      00009 
                      00810         LIST
                      00012         #include "macro.inc"                    ; definizione di macro utili
                      00001 ; definizione di macro utili per ottenere un codice piu' compatto
                      00002 ;
                      00003 ; se si include questo file in MPLAB X, selezionare "exclude from build"
                      00004 ;  dalle proprieta' del file (tasto destro sul file nella finestra
                      00005 ;  del progetto)
                      00006 
                      00007 
                      00008 ; macro per settare il valore di un registro (movlw + banksel + movwf)
                      00009 setRegK                 macro Reg, Const
                      00010                 movlw Const
                      00011                 banksel Reg
                      00012                 movwf Reg
                      00013                                 endm
                      00014 
                      00015 
                      00016 ; macro per azzerare un registro (banksel + clrf)
                      00017 setReg0 macro Reg
                      00018                     banksel Reg
                      00019                     clrf Reg
                      00020             endm
                      00021 
                      00013         #include "costants.inc"                 ;definizione di costanti
                      00001 ;definizioni costanti
                      00002 
                      00003 ;-------------------------------------------------------------------------------------------
                      00004 
                      00005 ;Timer0 viene utilizzato per il debouncing. L'oscillatore interno ha una frequenza di 8MHz e la frequenz
                            a scelta come sorgente per il timer è Fosc/4.
                      00006 ;Avendo scelto un PS di 256, il periodo Ttick è pari a 256/(8MHz/4) = 128us.
                      00007 ;Siccome il tempo di debouncing è di 10ms e x:10ms = 1:128us, allora x = 10ms/256us = 78 tick. 
                      00008 ;Pertanto la costante da caricare sul timer0 sarà (.256-.39)
MPASM 5.86                          MAIN.ASM   7-11-2022  14:45:53         PAGE  2


LOC  OBJECT CODE     LINE SOURCE TEXT
  VALUE

                      00009 
  000000B2            00010 tmr_10ms    equ    (.256-.78)
                      00011 
                      00012 ;Timer1 è utilizzato per il cronometro, che ha una risoluzione di 1 secondo.
                      00013 ;Avendo scelto come sorgente per il timer1 quella dell'oscillatore esterno, che ha una frequenza di 3676
                            8KHz, e avendo impostato il PS a 1, 
                      00014 ;il Ttick è pari a 1/36768KHz
                      00015 ;Il tempo massimo che può raggiungere il timer1 con queste impostazioni è pari a Tmax = Ttick*65536 = 2s
                            .
                      00016 ;Pertanto il numero di incrementi che corrisponde ad 1s è pari alla metà degli incrementi massimi, ovver
                            o 65536/2.
                      00017 
  00008000            00018 tmr_1s      equ    (.65536-.32768)
                      00019 
                      00020 ;la variabile flags è un vettore che contiene 2 bit di flag:
  00000000            00021 CAN_SLEEP   equ .0
  00000001            00022 TX_ON       equ .1
                      00023 
                      00024 ;nomi led
  00000000            00025 LED_D1      equ .0
  00000001            00026 LED_D2      equ .1
  00000002            00027 LED_D3      equ .2
  00000003            00028 LED_D4      equ .3
                      00014         
                      00015         ; configuration bits
2007   2CF4           00016         __CONFIG _CONFIG1, _INTRC_OSC_NOCLKOUT & _CP_OFF & _WDT_OFF & _BOR_OFF & _PWRTE_OFF & _LVP_OFF &
                             _DEBUG_OFF & _CPD_OFF
2008   3EFF           00017         __CONFIG _CONFIG2, _BOR21V
                      00018         
                      00019         ;label definite esternamente
  0000                00020         extern  start_timer, toggle_led, reload_tmr1, increment_cronometer  ;definite nel file functions
                            .asm
                      00021         
                      00022         ;variabili esportate
  0000                00023         global printBuff, flags, portb_prev, curr_sec, curr_min, byte_count
                      00024 
                      00025 ;-----------------------------------------------------------------------------------------------
                      00026         
                      00027 ; variabili in RAM (shared RAM)
                      00028                 udata_shr
0000                  00029 curr_sec         res    .1
0001                  00030 curr_min         res    .1
                      00031          ;flags contiene due bit: TX_ON e CAN_SLEEP, che vengono utilizzati per controllare se la trasmi
                            ssione è in corso
                      00032          ;e se la cpu può andare in sleep. La cpu non può andare in sleep fintanto che si sta facendo il
                             debouncing
0002                  00033 flags           res    .1
0003                  00034 portb_prev      res    .1
                      00035                     
                      00036     ; variabili in RAM(memoria NON condivisa)
                      00037                 udata
0000                  00038 printBuff        res    .6      ;Riservo 6 byte al buffer
0006                  00039 byte_count       res    .1      ;Numero di byte rimasti da trasmettere
MPASM 5.86                          MAIN.ASM   7-11-2022  14:45:53         PAGE  3


LOC  OBJECT CODE     LINE SOURCE TEXT
  VALUE

                      00040     
                      00041 
                      00042 ;-----------------------------------------------------------------------------------------------
                      00043 
                      00044                 ; reset vector
                      00045 rst_vector              code    0x0000
0000   ???? ????      00046                 pagesel start
0002   2???           00047                 goto start
                      00048 
                      00049 
                      00050                 ; programma principale
                      00051                 code
0000                  00052 start  
                      00053                 ;chiamo inizializzazione hardware
0000   ???? ????      00054                 pagesel initHw
0002   2???           00055                 call initHw
                      00056                 
                      00057 ;inizializzo i bit di flag e i contatori
                      00058                 
                      00059                 ;inizialmente la cpu può andare in sleep
0003   1400           00060                 bsf flags, CAN_SLEEP
                      00061                 
                      00062                 ;la trasmissione non è in corso
0004   1080           00063                 bcf flags, TX_ON
                      00064                 
                      00065                 ;azzero i contatori dei minuti e dei secondi
0005   01??           00066                 clrf    curr_sec
0006   01??           00067                 clrf    curr_min
                      00068                 
                      00069 ;inizializzo portb
                      00070                 
                      00071                 ;leggo PORTB per annullare mismatch
0007   1283 1303      00072                 banksel PORTB
0009   0806           00073                 movf    PORTB, w        ; legge PORTB eliminando condizione di mismatch
000A   100B           00074                 bcf INTCON, RBIF        ;resetto interrupt flag
000B   158B           00075                 bsf INTCON, RBIE        ;abilito interrupt portb
                      00076                 
                      00077                 ;inizializzo portb_prev
000C   3001           00078                 movlw   0x01    ; Pulsante non premuto -> switch aperto -> Vdd -> Logic 1
000D   00??           00079                 movwf   portb_prev
                      00080                 
                      00081 ;inizializzo i led
                      00082                 
                      00083                 ;accendo il led di debug e il led di sleep
000E   1283 1303      00084                 banksel PORTD
0010   3005           00085                 movlw   B'00000101'
0011   0088           00086                 movwf   PORTD
                      00087 
                      00088 ;inizializzo timer 1
                      00089                 
                      00090                 ;ricarico il timer
0012   ???? ????      00091                 pagesel reload_tmr1
0014   2???           00092                 call    reload_tmr1
MPASM 5.86                          MAIN.ASM   7-11-2022  14:45:53         PAGE  4


LOC  OBJECT CODE     LINE SOURCE TEXT
  VALUE

                      00093                 
                      00094                 ;faccio partire il cronometro
0015   1283 1303      00095                 banksel T1CON
0017   1410           00096                 bsf     T1CON, TMR1ON
                      00097                 
                      00098                 ;Abilito interrupt per timer1
0018   1683 1303      00099                 banksel PIE1
Message[302]: Register in operand not in bank 0.  Ensure that bank bits are correct.
001A   140C           00100                 bsf     PIE1, TMR1IE
                      00101                 
                      00102                 ;abilito periferical interrupt enable
001B   170B           00103                 bsf INTCON, PEIE
001C                  00104 main_loop
                      00105                 
001C                  00106 wait_sleep
                      00107                 ;abilito gloabal interrupt enable
001C   178B           00108                 bsf INTCON, GIE
                      00109                 
                      00110                 ;la cpu non va in sleep se can_sleep = 0
001D   1C00           00111                 btfss flags, CAN_SLEEP
001E   2???           00112                 goto wait_sleep
                      00113                 
                      00114                 ;la cpu non può andare in sleep se la trasmissione non è terminata
001F   1880           00115                 btfsc   flags, TX_ON
0020   2???           00116                 goto    wait_sleep
                      00117                 
                      00118                 ;siccome il flag TX_ON viene resettato prima che la trasmissione sia realmente terminata
                            , occorre controllare se lo shift register è realmente vuoto
                      00119                 
                      00120                 ;il bit TRMT indica lo stato dello shift register. Se lo shift register è vuoto, il bit 
                            è settato
0021   1683 1303      00121                 banksel     TXSTA
Message[302]: Register in operand not in bank 0.  Ensure that bank bits are correct.
0023   1C98           00122                 btfss       TXSTA, TRMT
0024   2???           00123                 goto wait_sleep
                      00124                 
                      00125                 
                      00126                 ;disabilito global interrupt enable
0025   138B           00127                 bcf INTCON, GIE
0026                  00128 go_sleep
                      00129                 ;spengo il led di sleep
0026   1283 1303      00130                 banksel PORTD
0028   1108           00131                 bcf PORTD, 0x02
                      00132                 
0029   0063           00133                 sleep
002A                  00134 wake_up         
                      00135                 ;accendo il led di sleep
002A   1283 1303      00136                 banksel PORTD
002C   1508           00137                 bsf PORTD, 0x02
                      00138                 
                      00139                 ;una volta risvegliato dall'interrupt, riabilito il GIE per entrare nella ISR
002D   178B           00140                 bsf INTCON, GIE
                      00141                 
MPASM 5.86                          MAIN.ASM   7-11-2022  14:45:53         PAGE  5


LOC  OBJECT CODE     LINE SOURCE TEXT
  VALUE

002E   2???           00142                 goto main_loop  
                      00143 ;-----------------------------------------------------------------------------------------------
                      00144                 
002F                  00145 initHw
                      00146 ; Scelgo la frequenza del clock di sistema
                      00147                 
                      00148         setRegK OSCCON, B'01110001' ; 8 MHz internal oscillator 
002F   3071               M                 movlw B'01110001'
0030   1683 1303          M                 banksel OSCCON
Message[302]: Register in operand not in bank 0.  Ensure that bank bits are correct.
0032   008F               M                 movwf OSCCON
                      00149         
                      00150 ;Interrupt
0033   018B           00151         clrf    INTCON  ;tutti gli interrupt sono disabilitati
                      00152         
                      00153 ;Inizializzazione pulsanti PORTB
                      00154                 
                      00155         ;setto i pin di PORTB come output(tutti e quattro i pulsanti). 
                      00156         ;0 -> output
                      00157         ;1 -> input
                      00158         
                      00159         ;1 -> pulsante rilasciato
                      00160         ;0 -> pulsante premuto
                      00161         ;il pulsante che vogliamo utilizzare è RB0
                      00162         setRegK TRISB, 0xFF
0034   30FF               M                 movlw 0xFF
0035   1683 1303          M                 banksel TRISB
Message[302]: Register in operand not in bank 0.  Ensure that bank bits are correct.
0037   0086               M                 movwf TRISB
                      00163         setRegK WPUB, B'00001111'
0038   300F               M                 movlw B'00001111'
0039   1683 1303          M                 banksel WPUB
Message[302]: Register in operand not in bank 0.  Ensure that bank bits are correct.
003B   0095               M                 movwf WPUB
                      00164         ;setto come input anche PORTA e PORTE
003C   30FF           00165         movlw   0xFF
Message[302]: Register in operand not in bank 0.  Ensure that bank bits are correct.
003D   0085           00166         movwf   TRISA
Message[302]: Register in operand not in bank 0.  Ensure that bank bits are correct.
003E   0089           00167         movwf   TRISE
                      00168         
                      00169         
                      00170         setReg0 PORTC
003F   1283 1303          M                     banksel PORTC
0041   0187               M                     clrf PORTC
                      00171         setRegK TRISC, B'10111111'
0042   30BF               M                 movlw B'10111111'
0043   1683 1303          M                 banksel TRISC
Message[302]: Register in operand not in bank 0.  Ensure that bank bits are correct.
0045   0087               M                 movwf TRISC
                      00172         
                      00173         ;disattivo input analogico su tutti i pin di PORTB
                      00174         setReg0 ANSELH
MPASM 5.86                          MAIN.ASM   7-11-2022  14:45:53         PAGE  6


LOC  OBJECT CODE     LINE SOURCE TEXT
  VALUE

0046   1683 1703          M                     banksel ANSELH
Message[302]: Register in operand not in bank 0.  Ensure that bank bits are correct.
0048   0189               M                     clrf ANSELH
                      00175         
                      00176         ;abilito l'interrupt on change sul pulsante RB0 di PORTB
                      00177         setRegK IOCB, 0x01
0049   3001               M                 movlw 0x01
004A   1683 1303          M                 banksel IOCB
Message[302]: Register in operand not in bank 0.  Ensure that bank bits are correct.
004C   0096               M                 movwf IOCB
                      00178         
                      00179 ;Inizializzazione LED
                      00180         
                      00181         ;setto i pin da 3 a 0 di PORTD come output
                      00182         setRegK TRISD, 0xF0
004D   30F0               M                 movlw 0xF0
004E   1683 1303          M                 banksel TRISD
Message[302]: Register in operand not in bank 0.  Ensure that bank bits are correct.
0050   0088               M                 movwf TRISD
                      00183         
                      00184 ;Inizializzazione timer0
                      00185          
                      00186         ;#RBPU = 0 -> pull up di portb attivi
                      00187         ;INTEDG = 0 -> interrupt sul falling edge
                      00188         ;T0CS = 0 -> sorgente di clock interna Fosc/4
                      00189         ;T0SE = 0 -> incremento sul fronte di salita(irrilevante, siccome utilizzo sorgente interna)
                      00190         ;PSA = 0 -> prescaler assegnato al timer0
                      00191         ;PS<2:0> = 111 -> prescaler a 256
                      00192         setRegK OPTION_REG, B'01000111'
0051   3047               M                 movlw B'01000111'
0052   1683 1303          M                 banksel OPTION_REG
Message[302]: Register in operand not in bank 0.  Ensure that bank bits are correct.
0054   0081               M                 movwf OPTION_REG
                      00193         
                      00194 ;Inizializzazione timer1
                      00195         
                      00196         ;T1GINV = 0 -> non rilevante, siccome il gate è disabilitato
                      00197         ;TMR1GE = 0 -> gate disabilitato
                      00198         ;T1CKPS<1:0> = 00 -> prescaler a 1:1
                      00199         ;T1OSCEN = 1 -> oscillatore LP abilitato
                      00200         ;#T1SYNC = 1 -> sincronizzazione disabilitata(il timer deve lavorare anche in sleep)
                      00201         ;TMR1CS = 1 -> seleziono sorgente esterna, oscillatore LP, dato che quando il micro è in sleep i
                            l timer deve continuare a contare
                      00202         ;TMR1ON = 0 -> timer è disattivato, verrà attivato al momento opportuno
                      00203         setRegK T1CON, B'00001110'
0055   300E               M                 movlw B'00001110'
0056   1283 1303          M                 banksel T1CON
0058   0090               M                 movwf T1CON
                      00204         
                      00205         
                      00206 ;Configuro modulo EUSART
                      00207         
                      00208         ;CSRC = 0 -> don't care in Async mode
MPASM 5.86                          MAIN.ASM   7-11-2022  14:45:53         PAGE  7


LOC  OBJECT CODE     LINE SOURCE TEXT
  VALUE

                      00209         ;TX9 = 0 -> trasmissione nono bit disabilitato
                      00210         ;TXEN = 1 -> trasmissione abilitata
                      00211         ;SYNC = 0 -> Asynchrnous mode
                      00212         ;SENDB = 0 -> Sync Break transmission completed
                      00213         ;BRGH = 1 -> abilito modalità High speed per la generazione del bode rate
                      00214         ;TMRT read only
                      00215         ;TX9D = 0 -> nono bit a zero
                      00216         setRegK TXSTA, B'00100100'
0059   3024               M                 movlw B'00100100'
005A   1683 1303          M                 banksel TXSTA
Message[302]: Register in operand not in bank 0.  Ensure that bank bits are correct.
005C   0098               M                 movwf TXSTA
                      00217         
                      00218         ;SPEN = 1 -> porta seriale abilitata
                      00219         ;RX9 = 0 -> ricezione nono bit disabilitato
                      00220         ;SREN = 0 -> ricezione continua(non utilizzata)
                      00221         ;CREN = 0 -> disabilita ricezione(non utilizzata)
                      00222         ;ADDEN = 0 -> don't care
                      00223         ;FERR read only
                      00224         ;OERR read only
                      00225         ;RX9D = 0 -> nono bit a zero
                      00226         setRegK RCSTA, B'10000000'
005D   3080               M                 movlw B'10000000'
005E   1283 1303          M                 banksel RCSTA
0060   0098               M                 movwf RCSTA
                      00227         
                      00228         ;BRG16 = 0 -> Baud Rate generator ad 8 bit
                      00229         setReg0 BAUDCTL
0061   1683 1703          M                     banksel BAUDCTL
Message[302]: Register in operand not in bank 0.  Ensure that bank bits are correct.
0063   0187               M                     clrf BAUDCTL
                      00230         
                      00231         ;imposto il bode rate.
                      00232         ;bode_rate = 19.2kHz
                      00233         ;SYNC = 0
                      00234         ;BRGH = 1
                      00235         ;BRG16 = 0
                      00236         setRegK SPBRG, .25
0064   3019               M                 movlw .25
0065   1683 1303          M                 banksel SPBRG
Message[302]: Register in operand not in bank 0.  Ensure that bank bits are correct.
0067   0099               M                 movwf SPBRG
                      00237         
0068   0008           00238         return
                      00239         
2CF4 3EFF             00240     end
MPASM 5.86                          MAIN.ASM   7-11-2022  14:45:53         PAGE  8


SYMBOL TABLE
  LABEL                             VALUE 

ABDEN                             00000000
ABDOVF                            00000007
ACKDT                             00000005
ACKEN                             00000004
ACKSTAT                           00000006
ADCON0                            0000001F
ADCON1                            0000009F
ADCS0                             00000006
ADCS1                             00000007
ADDEN                             00000003
ADFM                              00000007
ADIE                              00000006
ADIF                              00000006
ADON                              00000000
ADRESH                            0000001E
ADRESL                            0000009E
ANS0                              00000000
ANS1                              00000001
ANS10                             00000002
ANS11                             00000003
ANS12                             00000004
ANS13                             00000005
ANS2                              00000002
ANS3                              00000003
ANS4                              00000004
ANS5                              00000005
ANS6                              00000006
ANS7                              00000007
ANS8                              00000000
ANS9                              00000001
ANSEL                             00000188
ANSELH                            00000189
BAUDCTL                           00000187
BCLIE                             00000003
BCLIF                             00000003
BF                                00000000
BRG0                              00000000
BRG1                              00000001
BRG10                             00000002
BRG11                             00000003
BRG12                             00000004
BRG13                             00000005
BRG14                             00000006
BRG15                             00000007
BRG16                             00000003
BRG2                              00000002
BRG3                              00000003
BRG4                              00000004
BRG5                              00000005
BRG6                              00000006
BRG7                              00000007
BRG8                              00000000
BRG9                              00000001
MPASM 5.86                          MAIN.ASM   7-11-2022  14:45:53         PAGE  9


SYMBOL TABLE
  LABEL                             VALUE 

BRGH                              00000002
C                                 00000000
C1CH0                             00000000
C1CH1                             00000001
C1IE                              00000005
C1IF                              00000005
C1OE                              00000005
C1ON                              00000007
C1OUT                             00000006
C1POL                             00000004
C1R                               00000002
C1RSEL                            00000005
C1SEN                             00000005
C2CH0                             00000000
C2CH1                             00000001
C2IE                              00000006
C2IF                              00000006
C2OE                              00000005
C2ON                              00000007
C2OUT                             00000006
C2POL                             00000004
C2R                               00000002
C2REN                             00000004
C2RSEL                            00000004
C2SYNC                            00000000
CAN_SLEEP                         00000000
CCP1CON                           00000017
CCP1IE                            00000002
CCP1IF                            00000002
CCP1M0                            00000000
CCP1M1                            00000001
CCP1M2                            00000002
CCP1M3                            00000003
CCP1X                             00000005
CCP1Y                             00000004
CCP2CON                           0000001D
CCP2IE                            00000000
CCP2IF                            00000000
CCP2M0                            00000000
CCP2M1                            00000001
CCP2M2                            00000002
CCP2M3                            00000003
CCP2X                             00000005
CCP2Y                             00000004
CCPR1                             00000015
CCPR1H                            00000016
CCPR1L                            00000015
CCPR2                             0000001B
CCPR2H                            0000001C
CCPR2L                            0000001B
CHS0                              00000002
CHS1                              00000003
CHS2                              00000004
MPASM 5.86                          MAIN.ASM   7-11-2022  14:45:53         PAGE 10


SYMBOL TABLE
  LABEL                             VALUE 

CHS3                              00000005
CKE                               00000006
CKP                               00000004
CM1CON0                           00000107
CM2CON0                           00000108
CM2CON1                           00000109
CREN                              00000004
CSRC                              00000007
D                                 00000005
DATA_ADDRESS                      00000005
DC                                00000001
DC1B0                             00000004
DC1B1                             00000005
DC2B0                             00000004
DC2B1                             00000005
D_A                               00000005
D_NOT_A                           00000005
ECCPAS                            0000009C
ECCPAS0                           00000004
ECCPAS1                           00000005
ECCPAS2                           00000006
ECCPASE                           00000007
EEADR                             0000010D
EEADRH                            0000010F
EECON1                            0000018C
EECON2                            0000018D
EEDAT                             0000010C
EEDATA                            0000010C
EEDATH                            0000010E
EEIE                              00000004
EEIF                              00000004
EEPGD                             00000007
F                                 00000001
FERR                              00000002
FSR                               00000004
FVREN                             00000000
GCEN                              00000007
GIE                               00000007
GO                                00000001
GO_DONE                           00000001
GO_NOT_DONE                       00000001
HTS                               00000002
I2C_DATA                          00000005
I2C_READ                          00000002
I2C_START                         00000003
I2C_STOP                          00000004
INDF                              00000000
INTCON                            0000000B
INTE                              00000004
INTEDG                            00000006
INTF                              00000001
IOCB                              00000096
IOCB0                             00000000
MPASM 5.86                          MAIN.ASM   7-11-2022  14:45:53         PAGE 11


SYMBOL TABLE
  LABEL                             VALUE 

IOCB1                             00000001
IOCB2                             00000002
IOCB3                             00000003
IOCB4                             00000004
IOCB5                             00000005
IOCB6                             00000006
IOCB7                             00000007
IRCF0                             00000004
IRCF1                             00000005
IRCF2                             00000006
IRP                               00000007
LED_D1                            00000000
LED_D2                            00000001
LED_D3                            00000002
LED_D4                            00000003
LTS                               00000001
MC1OUT                            00000007
MC2OUT                            00000006
MSK                               00000093
MSK0                              00000000
MSK1                              00000001
MSK2                              00000002
MSK3                              00000003
MSK4                              00000004
MSK5                              00000005
MSK6                              00000006
MSK7                              00000007
NOT_A                             00000005
NOT_ADDRESS                       00000005
NOT_BO                            00000000
NOT_BOR                           00000000
NOT_DONE                          00000001
NOT_PD                            00000003
NOT_POR                           00000001
NOT_RBPU                          00000007
NOT_RC8                           00000006
NOT_T1SYNC                        00000002
NOT_TO                            00000004
NOT_TX8                           00000006
NOT_W                             00000002
NOT_WRITE                         00000002
OERR                              00000001
OPTION_REG                        00000081
OSCCON                            0000008F
OSCTUNE                           00000090
OSFIE                             00000007
OSFIF                             00000007
OSTS                              00000003
P                                 00000004
P1M0                              00000006
P1M1                              00000007
PCL                               00000002
PCLATH                            0000000A
MPASM 5.86                          MAIN.ASM   7-11-2022  14:45:53         PAGE 12


SYMBOL TABLE
  LABEL                             VALUE 

PCON                              0000008E
PDC0                              00000000
PDC1                              00000001
PDC2                              00000002
PDC3                              00000003
PDC4                              00000004
PDC5                              00000005
PDC6                              00000006
PEIE                              00000006
PEN                               00000002
PIE1                              0000008C
PIE2                              0000008D
PIR1                              0000000C
PIR2                              0000000D
PORTA                             00000005
PORTB                             00000006
PORTC                             00000007
PORTD                             00000008
PORTE                             00000009
PR2                               00000092
PRSEN                             00000007
PS0                               00000000
PS1                               00000001
PS2                               00000002
PSA                               00000003
PSSAC0                            00000002
PSSAC1                            00000003
PSSBD0                            00000000
PSSBD1                            00000001
PSTRCON                           0000009D
PULSR                             00000002
PULSS                             00000003
PWM1CON                           0000009B
R                                 00000002
RA0                               00000000
RA1                               00000001
RA2                               00000002
RA3                               00000003
RA4                               00000004
RA5                               00000005
RA6                               00000006
RA7                               00000007
RB0                               00000000
RB1                               00000001
RB2                               00000002
RB3                               00000003
RB4                               00000004
RB5                               00000005
RB6                               00000006
RB7                               00000007
RBIE                              00000003
RBIF                              00000000
RC0                               00000000
MPASM 5.86                          MAIN.ASM   7-11-2022  14:45:53         PAGE 13


SYMBOL TABLE
  LABEL                             VALUE 

RC1                               00000001
RC2                               00000002
RC3                               00000003
RC4                               00000004
RC5                               00000005
RC6                               00000006
RC7                               00000007
RC8_9                             00000006
RC9                               00000006
RCD8                              00000000
RCEN                              00000003
RCIDL                             00000006
RCIE                              00000005
RCIF                              00000005
RCREG                             0000001A
RCSTA                             00000018
RD                                00000000
RD0                               00000000
RD1                               00000001
RD2                               00000002
RD3                               00000003
RD4                               00000004
RD5                               00000005
RD6                               00000006
RD7                               00000007
RE0                               00000000
RE1                               00000001
RE2                               00000002
RE3                               00000003
READ_WRITE                        00000002
RP0                               00000005
RP1                               00000006
RSEN                              00000001
RX9                               00000006
RX9D                              00000000
R_NOT_W                           00000002
R_W                               00000002
S                                 00000003
SBOREN                            00000004
SCKP                              00000004
SCS                               00000000
SEN                               00000000
SENDB                             00000003
SMP                               00000007
SPBRG                             00000099
SPBRGH                            0000009A
SPEN                              00000007
SR0                               00000006
SR1                               00000007
SRCON                             00000185
SREN                              00000005
SSPADD                            00000093
SSPBUF                            00000013
MPASM 5.86                          MAIN.ASM   7-11-2022  14:45:53         PAGE 14


SYMBOL TABLE
  LABEL                             VALUE 

SSPCON                            00000014
SSPCON2                           00000091
SSPEN                             00000005
SSPIE                             00000003
SSPIF                             00000003
SSPM0                             00000000
SSPM1                             00000001
SSPM2                             00000002
SSPM3                             00000003
SSPMSK                            00000093
SSPOV                             00000006
SSPSTAT                           00000094
STATUS                            00000003
STRA                              00000000
STRB                              00000001
STRC                              00000002
STRD                              00000003
STRSYNC                           00000004
SWDTEN                            00000000
SYNC                              00000004
T0CS                              00000005
T0IE                              00000005
T0IF                              00000002
T0SE                              00000004
T1CKPS0                           00000004
T1CKPS1                           00000005
T1CON                             00000010
T1GINV                            00000007
T1GIV                             00000007
T1GSS                             00000001
T1INSYNC                          00000002
T1OSCEN                           00000003
T1SYNC                            00000002
T2CKPS0                           00000000
T2CKPS1                           00000001
T2CON                             00000012
TMR0                              00000001
TMR0IE                            00000005
TMR0IF                            00000002
TMR1                              0000000E
TMR1CS                            00000001
TMR1GE                            00000006
TMR1H                             0000000F
TMR1IE                            00000000
TMR1IF                            00000000
TMR1L                             0000000E
TMR1ON                            00000000
TMR2                              00000011
TMR2IE                            00000001
TMR2IF                            00000001
TMR2ON                            00000002
TOUTPS0                           00000003
TOUTPS1                           00000004
MPASM 5.86                          MAIN.ASM   7-11-2022  14:45:53         PAGE 15


SYMBOL TABLE
  LABEL                             VALUE 

TOUTPS2                           00000005
TOUTPS3                           00000006
TRISA                             00000085
TRISA0                            00000000
TRISA1                            00000001
TRISA2                            00000002
TRISA3                            00000003
TRISA4                            00000004
TRISA5                            00000005
TRISA6                            00000006
TRISA7                            00000007
TRISB                             00000086
TRISB0                            00000000
TRISB1                            00000001
TRISB2                            00000002
TRISB3                            00000003
TRISB4                            00000004
TRISB5                            00000005
TRISB6                            00000006
TRISB7                            00000007
TRISC                             00000087
TRISC0                            00000000
TRISC1                            00000001
TRISC2                            00000002
TRISC3                            00000003
TRISC4                            00000004
TRISC5                            00000005
TRISC6                            00000006
TRISC7                            00000007
TRISD                             00000088
TRISD0                            00000000
TRISD1                            00000001
TRISD2                            00000002
TRISD3                            00000003
TRISD4                            00000004
TRISD5                            00000005
TRISD6                            00000006
TRISD7                            00000007
TRISE                             00000089
TRISE0                            00000000
TRISE1                            00000001
TRISE2                            00000002
TRISE3                            00000003
TRMT                              00000001
TUN0                              00000000
TUN1                              00000001
TUN2                              00000002
TUN3                              00000003
TUN4                              00000004
TX8_9                             00000006
TX9                               00000006
TX9D                              00000000
TXD8                              00000000
MPASM 5.86                          MAIN.ASM   7-11-2022  14:45:53         PAGE 16


SYMBOL TABLE
  LABEL                             VALUE 

TXEN                              00000005
TXIE                              00000004
TXIF                              00000004
TXREG                             00000019
TXSTA                             00000098
TX_ON                             00000001
UA                                00000001
ULPWUE                            00000005
ULPWUIE                           00000002
ULPWUIF                           00000002
VCFG0                             00000004
VCFG1                             00000005
VR0                               00000000
VR1                               00000001
VR2                               00000002
VR3                               00000003
VRCON                             00000097
VREN                              00000007
VROE                              00000006
VRR                               00000005
VRSS                              00000004
W                                 00000000
WCOL                              00000007
WDTCON                            00000105
WDTPS0                            00000001
WDTPS1                            00000002
WDTPS2                            00000003
WDTPS3                            00000004
WPUB                              00000095
WPUB0                             00000000
WPUB1                             00000001
WPUB2                             00000002
WPUB3                             00000003
WPUB4                             00000004
WPUB5                             00000005
WPUB6                             00000006
WPUB7                             00000007
WR                                00000001
WREN                              00000002
WRERR                             00000003
WUE                               00000001
Z                                 00000002
_BOR21V                           00003EFF
_BOR40V                           00003FFF
_BOR4V_BOR21V                     00003EFF
_BOR4V_BOR40V                     00003FFF
_BOREN_NSLEEP                     00003EFF
_BOREN_OFF                        00003CFF
_BOREN_ON                         00003FFF
_BOREN_SBODEN                     00003DFF
_BOR_NSLEEP                       00003EFF
_BOR_OFF                          00003CFF
_BOR_ON                           00003FFF
MPASM 5.86                          MAIN.ASM   7-11-2022  14:45:53         PAGE 17


SYMBOL TABLE
  LABEL                             VALUE 

_BOR_SBODEN                       00003DFF
_CONFIG1                          00002007
_CONFIG2                          00002008
_CPD_OFF                          00003FFF
_CPD_ON                           00003F7F
_CP_OFF                           00003FFF
_CP_ON                            00003FBF
_DEBUG_OFF                        00003FFF
_DEBUG_ON                         00001FFF
_DEVID1                           00002006
_EC_OSC                           00003FFB
_EXTRC                            00003FFF
_EXTRCIO                          00003FFE
_EXTRC_OSC_CLKOUT                 00003FFF
_EXTRC_OSC_NOCLKOUT               00003FFE
_FCMEN_OFF                        000037FF
_FCMEN_ON                         00003FFF
_FOSC_EC                          00003FFB
_FOSC_EXTRC_CLKOUT                00003FFF
_FOSC_EXTRC_NOCLKOUT              00003FFE
_FOSC_HS                          00003FFA
_FOSC_INTRC_CLKOUT                00003FFD
_FOSC_INTRC_NOCLKOUT              00003FFC
_FOSC_LP                          00003FF8
_FOSC_XT                          00003FF9
_HS_OSC                           00003FFA
_IDLOC0                           00002000
_IDLOC1                           00002001
_IDLOC2                           00002002
_IDLOC3                           00002003
_IESO_OFF                         00003BFF
_IESO_ON                          00003FFF
_INTOSC                           00003FFD
_INTOSCIO                         00003FFC
_INTRC_OSC_CLKOUT                 00003FFD
_INTRC_OSC_NOCLKOUT               00003FFC
_LP_OSC                           00003FF8
_LVP_OFF                          00002FFF
_LVP_ON                           00003FFF
_MCLRE_OFF                        00003FDF
_MCLRE_ON                         00003FFF
_PWRTE_OFF                        00003FFF
_PWRTE_ON                         00003FEF
_WDTE_OFF                         00003FF7
_WDTE_ON                          00003FFF
_WDT_OFF                          00003FF7
_WDT_ON                           00003FFF
_WRT_1FOURTH                      00003BFF
_WRT_256                          00003DFF
_WRT_HALF                         000039FF
_WRT_OFF                          00003FFF
_XT_OSC                           00003FF9
__16F887                          00000001
MPASM 5.86                          MAIN.ASM   7-11-2022  14:45:53         PAGE 18


SYMBOL TABLE
  LABEL                             VALUE 

byte_count                        00000006
curr_min                          00000001
curr_sec                          00000000
flags                             00000002
go_sleep                          00000026
increment_cronometer              00000000
initHw                            0000002F
main_loop                         0000001C
portb_prev                        00000003
printBuff                         00000000
reload_tmr1                       00000000
setReg0                           
setRegK                           
start                             00000000
start_timer                       00000000
tmr_10ms                          000000B2
tmr_1s                            00008000
toggle_led                        00000000
wait_sleep                        0000001C
wake_up                           0000002A

Errors   :     0
Warnings :     0 reported,     0 suppressed
Messages :    15 reported,     0 suppressed

